target datalayout = "e-m:e-p270:32:32-p271:32:32-p272:64:64-i64:64-i128:128-f80:128-n8:16:32:64-S128"
target triple = "x86_64-pc-linux-gnu"

%"struct.net::QuicFrame" = type { i32, %union.anon.39 }
%union.anon.39 = type { ptr }

; Function Attrs: mustprogress nounwind uwtable
define noundef zeroext i1 @_ZN3net17QuicPacketCreator16ShouldRetransmitERKNS_9QuicFrameE(ptr noundef nonnull align 8 dereferenceable(16) %0) #1 align 2 {
  %2 = alloca i1, align 1
  %3 = alloca ptr, align 8
  store ptr %0, ptr %3, align 8, !tbaa !127
  %4 = load ptr, ptr %3, align 8, !tbaa !127
  %5 = getelementptr inbounds nuw %"struct.net::QuicFrame", ptr %4, i32 0, i32 0
  %6 = load i32, ptr %5, align 8, !tbaa !113
  switch i32 %6, label %8 [
    i32 10, label %7
    i32 0, label %7
    i32 6, label %7
    i32 11, label %7
  ]

7:                                                ; preds = %1, %1, %1, %1
  store i1 false, ptr %2, align 1
  br label %9

8:                                                ; preds = %1
  store i1 true, ptr %2, align 1
  br label %9

9:                                                ; preds = %8, %7
  %10 = load i1, ptr %2, align 1
  ret i1 %10
}