; Function Attrs: mustprogress nofree norecurse nosync nounwind willreturn memory(argmem: read) uwtable
define noundef zeroext i1 @_ZN3net17QuicPacketCreator16ShouldRetransmitERKNS_9QuicFrameE(ptr noundef nonnull readonly align 8 captures(none) dereferenceable(16) %0) local_unnamed_addr #7 align 2 {
  %2 = load i32, ptr %0, align 8, !tbaa !97
  %3 = icmp ugt i32 %2, 11
  %switch.cast = trunc i32 %2 to i12
  %switch.downshift = lshr i12 958, %switch.cast
  %switch.masked = trunc i12 %switch.downshift to i1
  %.0 = select i1 %3, i1 true, i1 %switch.masked
  ret i1 %.0
}